target datalayout = "e-m:e-p270:32:32-p271:32:32-p272:64:64-i64:64-i128:128-f80:128-n8:16:32:64-S128"
target triple = "x86_64-pc-linux-gnu"

%struct.AVBSFContext = type { ptr, ptr, ptr, ptr, ptr, %struct.AVRational, %struct.AVRational }
%struct.AVRational = type { i32, i32 }
%struct.VP9BSFContext = type { i32, [8 x ptr] }

; Function Attrs: nounwind uwtable
define internal i32 @vp9_superframe_init(ptr noundef %0) #0 {
  %2 = alloca i32, align 4
  %3 = alloca ptr, align 8
  %4 = alloca ptr, align 8
  %5 = alloca i32, align 4
  %6 = alloca i32, align 4
  store ptr %0, ptr %3, align 8, !tbaa !4
  call void @llvm.lifetime.start.p0(i64 8, ptr %4) #7
  %7 = load ptr, ptr %3, align 8, !tbaa !4
  %8 = getelementptr inbounds nuw %struct.AVBSFContext, ptr %7, i32 0, i32 2
  %9 = load ptr, ptr %8, align 8, !tbaa !9
  store ptr %9, ptr %4, align 8, !tbaa !16
  call void @llvm.lifetime.start.p0(i64 4, ptr %5) #7
  store i32 0, ptr %5, align 4, !tbaa !18
  br label %10

10:                                               ; preds = %29, %1
  %11 = load i32, ptr %5, align 4, !tbaa !18
  %12 = icmp slt i32 %11, 8
  br i1 %12, label %13, label %32

13:                                               ; preds = %10
  %14 = call ptr @av_packet_alloc()
  %15 = load ptr, ptr %4, align 8, !tbaa !16
  %16 = getelementptr inbounds nuw %struct.VP9BSFContext, ptr %15, i32 0, i32 1
  %17 = load i32, ptr %5, align 4, !tbaa !18
  %18 = sext i32 %17 to i64
  %19 = getelementptr inbounds [8 x ptr], ptr %16, i64 0, i64 %18
  store ptr %14, ptr %19, align 8, !tbaa !19
  %20 = load ptr, ptr %4, align 8, !tbaa !16
  %21 = getelementptr inbounds nuw %struct.VP9BSFContext, ptr %20, i32 0, i32 1
  %22 = load i32, ptr %5, align 4, !tbaa !18
  %23 = sext i32 %22 to i64
  %24 = getelementptr inbounds [8 x ptr], ptr %21, i64 0, i64 %23
  %25 = load ptr, ptr %24, align 8, !tbaa !19
  %26 = icmp ne ptr %25, null
  br i1 %26, label %28, label %27

27:                                               ; preds = %13
  store i32 -12, ptr %2, align 4
  store i32 1, ptr %6, align 4
  br label %33

28:                                               ; preds = %13
  br label %29

29:                                               ; preds = %28
  %30 = load i32, ptr %5, align 4, !tbaa !18
  %31 = add nsw i32 %30, 1
  store i32 %31, ptr %5, align 4, !tbaa !18
  br label %10, !llvm.loop !21

32:                                               ; preds = %10
  store i32 0, ptr %2, align 4
  store i32 1, ptr %6, align 4
  br label %33

33:                                               ; preds = %32, %27
  call void @llvm.lifetime.end.p0(i64 4, ptr %5) #7
  call void @llvm.lifetime.end.p0(i64 8, ptr %4) #7
  %34 = load i32, ptr %2, align 4
  ret i32 %34
}