; Function Attrs: nounwind uwtable
define internal range(i32 -12, 1) i32 @vp9_superframe_init(ptr noundef readonly captures(none) %0) #0 {
  %2 = getelementptr inbounds nuw i8, ptr %0, i64 16
  %3 = load ptr, ptr %2, align 8, !tbaa !4
  %4 = getelementptr inbounds nuw i8, ptr %3, i64 8
  br label %6

5:                                                ; preds = %6
  %indvars.iv.next = add nuw nsw i64 %indvars.iv, 1
  %exitcond.not = icmp eq i64 %indvars.iv.next, 8
  br i1 %exitcond.not, label %9, label %6, !llvm.loop !14

6:                                                ; preds = %1, %5
  %indvars.iv = phi i64 [ 0, %1 ], [ %indvars.iv.next, %5 ]
  %7 = tail call ptr @av_packet_alloc() #5
  %8 = getelementptr inbounds nuw [8 x ptr], ptr %4, i64 0, i64 %indvars.iv
  store ptr %7, ptr %8, align 8, !tbaa !16
  %.not = icmp eq ptr %7, null
  br i1 %.not, label %9, label %5

9:                                                ; preds = %5, %6
  %.07 = phi i32 [ -12, %6 ], [ 0, %5 ]
  ret i32 %.07
}